; Function Attrs: mustprogress nounwind uwtable
define dso_local noundef i32 @_ZNK5clang6format22BreakableStringLiteral18getRemainingLengthEjjj(ptr nocapture noundef nonnull readonly align 8 dereferenceable(92) %0, i32 %1, i32 noundef %2, i32 noundef %3) unnamed_addr #0 align 2 {
  %5 = getelementptr inbounds nuw i8, ptr %0, i64 88
  %6 = load i32, ptr %5, align 8
  %7 = getelementptr inbounds i8, ptr %0, i64 64
  %8 = load i64, ptr %7, align 8
  %9 = getelementptr inbounds nuw i8, ptr %0, i64 72
  %10 = zext i32 %2 to i64
  %11 = getelementptr inbounds i8, ptr %0, i64 80
  %12 = load i64, ptr %11, align 8
  %.sroa.speculated5.i = tail call i64 @llvm.umin.i64(i64 %12, i64 %10)
  %13 = load ptr, ptr %9, align 8
  %14 = getelementptr inbounds i8, ptr %13, i64 %.sroa.speculated5.i
  %15 = sub i64 %12, %.sroa.speculated5.i
  %16 = getelementptr inbounds nuw i8, ptr %0, i64 24
  %17 = load ptr, ptr %16, align 8
  %18 = getelementptr inbounds nuw i8, ptr %17, i64 836
  %19 = load i32, ptr %18, align 4
  %20 = getelementptr inbounds nuw i8, ptr %0, i64 20
  %21 = load i32, ptr %20, align 4
  %22 = tail call noundef i32 @_ZN5clang6format8encoding19columnWidthWithTabsEN4llvm9StringRefEjjNS1_8EncodingE(ptr %14, i64 %15, i32 noundef %3, i32 noundef %19, i32 noundef %21)
  %23 = trunc i64 %8 to i32
  %24 = add i32 %6, %23
  %25 = add i32 %24, %22
  ret i32 %25
}